target datalayout = "e-m:e-p270:32:32-p271:32:32-p272:64:64-i64:64-i128:128-f80:128-n8:16:32:64-S128"
target triple = "x86_64-pc-linux-gnu"

%struct.ident_t = type { i32, i32, i32, i32, ptr }

@1 = private unnamed_addr constant %struct.ident_t { i32 0, i32 514, i32 0, i32 22, ptr @0 }, align 8

; Function Attrs: norecurse nounwind uwtable
define internal void @_ZN5faiss26fvec_inner_products_by_idxEPfPKfS2_PKlmmm.omp_outlined(ptr noalias noundef %0, ptr noalias noundef %1, ptr noundef nonnull align 8 dereferenceable(8) %2, ptr noundef nonnull align 8 dereferenceable(8) %3, ptr noundef nonnull align 8 dereferenceable(8) %4, ptr noundef nonnull align 8 dereferenceable(8) %5, ptr noundef nonnull align 8 dereferenceable(8) %6, ptr noundef nonnull align 8 dereferenceable(8) %7, ptr noundef nonnull align 8 dereferenceable(8) %8) #1 personality ptr @__gxx_personality_v0 {
  %10 = alloca ptr, align 8
  %11 = alloca ptr, align 8
  %12 = alloca ptr, align 8
  %13 = alloca ptr, align 8
  %14 = alloca ptr, align 8
  %15 = alloca ptr, align 8
  %16 = alloca ptr, align 8
  %17 = alloca ptr, align 8
  %18 = alloca ptr, align 8
  %19 = alloca i64, align 8
  %20 = alloca i64, align 8
  %21 = alloca i64, align 8
  %22 = alloca i64, align 8
  %23 = alloca i64, align 8
  %24 = alloca i64, align 8
  %25 = alloca i64, align 8
  %26 = alloca i32, align 4
  %27 = alloca i64, align 8
  %28 = alloca ptr, align 8
  %29 = alloca ptr, align 8
  %30 = alloca ptr, align 8
  %31 = alloca i64, align 8
  store ptr %0, ptr %10, align 8
  store ptr %1, ptr %11, align 8
  store ptr %2, ptr %12, align 8
  store ptr %3, ptr %13, align 8
  store ptr %4, ptr %14, align 8
  store ptr %5, ptr %15, align 8
  store ptr %6, ptr %16, align 8
  store ptr %7, ptr %17, align 8
  store ptr %8, ptr %18, align 8
  %32 = load ptr, ptr %12, align 8
  %33 = load ptr, ptr %13, align 8
  %34 = load ptr, ptr %14, align 8
  %35 = load ptr, ptr %15, align 8
  %36 = load ptr, ptr %16, align 8
  %37 = load ptr, ptr %17, align 8
  %38 = load ptr, ptr %18, align 8
  %39 = load i64, ptr %32, align 8
  store i64 %39, ptr %20, align 8
  %40 = load i64, ptr %20, align 8
  %41 = sub i64 %40, 0
  %42 = udiv i64 %41, 1
  %43 = sub i64 %42, 1
  store i64 %43, ptr %21, align 8
  store i64 0, ptr %22, align 8
  %44 = load i64, ptr %20, align 8
  %45 = icmp ult i64 0, %44
  br i1 %45, label %46, label %127

46:                                               ; preds = %9
  store i64 0, ptr %23, align 8
  %47 = load i64, ptr %21, align 8
  store i64 %47, ptr %24, align 8
  store i64 1, ptr %25, align 8
  store i32 0, ptr %26, align 4
  %48 = load ptr, ptr %10, align 8
  %49 = load i32, ptr %48, align 4
  call void @__kmpc_for_static_init_8u(ptr @1, i32 %49, i32 34, ptr %26, ptr %23, ptr %24, ptr %25, i64 1, i64 1)
  %50 = load i64, ptr %24, align 8
  %51 = load i64, ptr %21, align 8
  %52 = icmp ugt i64 %50, %51
  br i1 %52, label %53, label %55

53:                                               ; preds = %46
  %54 = load i64, ptr %21, align 8
  br label %57

55:                                               ; preds = %46
  %56 = load i64, ptr %24, align 8
  br label %57

57:                                               ; preds = %55, %53
  %58 = phi i64 [ %54, %53 ], [ %56, %55 ]
  store i64 %58, ptr %24, align 8
  %59 = load i64, ptr %23, align 8
  store i64 %59, ptr %19, align 8
  br label %60

60:                                               ; preds = %120, %57
  %61 = load i64, ptr %19, align 8
  %62 = load i64, ptr %24, align 8
  %63 = add i64 %62, 1
  %64 = icmp ult i64 %61, %63
  br i1 %64, label %65, label %123

65:                                               ; preds = %60
  %66 = load i64, ptr %19, align 8
  %67 = mul i64 %66, 1
  %68 = add i64 0, %67
  store i64 %68, ptr %27, align 8
  %69 = load ptr, ptr %33, align 8
  %70 = load i64, ptr %27, align 8
  %71 = load i64, ptr %34, align 8
  %72 = mul i64 %70, %71
  %73 = getelementptr inbounds i64, ptr %69, i64 %72
  store ptr %73, ptr %28, align 8
  %74 = load ptr, ptr %35, align 8
  %75 = load i64, ptr %27, align 8
  %76 = load i64, ptr %36, align 8
  %77 = mul i64 %75, %76
  %78 = getelementptr inbounds float, ptr %74, i64 %77
  store ptr %78, ptr %29, align 8
  %79 = load ptr, ptr %37, align 8
  %80 = load i64, ptr %27, align 8
  %81 = load i64, ptr %34, align 8
  %82 = mul i64 %80, %81
  %83 = getelementptr inbounds float, ptr %79, i64 %82
  store ptr %83, ptr %30, align 8
  store i64 0, ptr %31, align 8
  br label %84

84:                                               ; preds = %115, %65
  %85 = load i64, ptr %31, align 8
  %86 = load i64, ptr %34, align 8
  %87 = icmp ult i64 %85, %86
  br i1 %87, label %88, label %118

88:                                               ; preds = %84
  %89 = load ptr, ptr %28, align 8
  %90 = load i64, ptr %31, align 8
  %91 = getelementptr inbounds i64, ptr %89, i64 %90
  %92 = load i64, ptr %91, align 8
  %93 = icmp slt i64 %92, 0
  br i1 %93, label %94, label %98

94:                                               ; preds = %88
  %95 = load ptr, ptr %30, align 8
  %96 = load i64, ptr %31, align 8
  %97 = getelementptr inbounds float, ptr %95, i64 %96
  store float 0xFFF0000000000000, ptr %97, align 4
  br label %114

98:                                               ; preds = %88
  %99 = load ptr, ptr %29, align 8
  %100 = load ptr, ptr %38, align 8
  %101 = load i64, ptr %36, align 8
  %102 = load ptr, ptr %28, align 8
  %103 = load i64, ptr %31, align 8
  %104 = getelementptr inbounds i64, ptr %102, i64 %103
  %105 = load i64, ptr %104, align 8
  %106 = mul i64 %101, %105
  %107 = getelementptr inbounds float, ptr %100, i64 %106
  %108 = load i64, ptr %36, align 8
  %109 = invoke noundef float @_ZN5faiss18fvec_inner_productEPKfS1_m(ptr noundef %99, ptr noundef %107, i64 noundef %108)
          to label %110 unwind label %128

110:                                              ; preds = %98
  %111 = load ptr, ptr %30, align 8
  %112 = load i64, ptr %31, align 8
  %113 = getelementptr inbounds float, ptr %111, i64 %112
  store float %109, ptr %113, align 4
  br label %114

114:                                              ; preds = %110, %94
  br label %115

115:                                              ; preds = %114
  %116 = load i64, ptr %31, align 8
  %117 = add i64 %116, 1
  store i64 %117, ptr %31, align 8
  br label %84, !llvm.loop !99

118:                                              ; preds = %84
  br label %119

119:                                              ; preds = %118
  br label %120

120:                                              ; preds = %119
  %121 = load i64, ptr %19, align 8
  %122 = add i64 %121, 1
  store i64 %122, ptr %19, align 8
  br label %60

123:                                              ; preds = %60
  br label %124

124:                                              ; preds = %123
  %125 = load ptr, ptr %10, align 8
  %126 = load i32, ptr %125, align 4
  call void @__kmpc_for_static_fini(ptr @1, i32 %126)
  br label %127

127:                                              ; preds = %124, %9
  ret void

128:                                              ; preds = %98
  %129 = landingpad { ptr, i32 }
          catch ptr null
  %130 = extractvalue { ptr, i32 } %129, 0
  call void @__clang_call_terminate(ptr %130) #17
  unreachable
}